target datalayout = "e-m:e-p270:32:32-p271:32:32-p272:64:64-i64:64-i128:128-f80:128-n8:16:32:64-S128"
target triple = "x86_64-pc-linux-gnu"

%struct.ArgoASFFileHeader = type { i32, i16, i16, i32, i32, [9 x i8] }
%struct.ArgoASFChunkHeader = type { i32, i32, i32, i16, i16, i32 }
%struct.AVChannelLayout = type { i32, i32, %union.anon, ptr }
%union.anon = type { i64 }
%struct.AVStream = type { ptr, i32, i32, ptr, ptr, %struct.AVRational, i64, i64, i64, i32, i32, %struct.AVRational, ptr, %struct.AVRational, %struct.AVPacket, i32, %struct.AVRational, i32 }
%struct.AVPacket = type { ptr, i64, i64, ptr, i32, i32, i32, ptr, i32, i64, i64, ptr, ptr, %struct.AVRational }
%struct.AVRational = type { i32, i32 }
%struct.AVCodecParameters = type { i32, i32, i32, ptr, i32, ptr, i32, i32, i64, i32, i32, i32, i32, i32, i32, %struct.AVRational, %struct.AVRational, i32, i32, i32, i32, i32, i32, i32, %struct.AVChannelLayout, i32, i32, i32, i32, i32, i32 }
%struct.AVFormatContext = type { ptr, ptr, ptr, ptr, ptr, i32, i32, ptr, i32, ptr, i32, ptr, ptr, i64, i64, i64, i32, i32, i32, i64, i64, ptr, i32, i32, ptr, i32, i32, i32, i32, ptr, i64, i32, i32, %struct.AVIOInterruptCB, i32, i32, i32, i32, i64, i32, i32, i32, i32, i32, i32, i32, i32, i32, i32, i32, i32, i64, i32, i32, i32, i32, i32, ptr, ptr, ptr, ptr, i32, ptr, ptr, ptr, ptr, i32, ptr, ptr, i64, ptr, ptr, ptr, i64 }
%struct.AVIOInterruptCB = type { ptr, ptr }
%struct.ArgoASFDemuxContext = type { %struct.ArgoASFFileHeader, %struct.ArgoASFChunkHeader, i32 }

; Function Attrs: nounwind uwtable
define internal i32 @argo_asf_seek(ptr noundef %0, i32 noundef %1, i64 noundef %2, i32 noundef %3) #0 {
  %5 = alloca i32, align 4
  %6 = alloca ptr, align 8
  %7 = alloca i32, align 4
  %8 = alloca i64, align 8
  %9 = alloca i32, align 4
  %10 = alloca ptr, align 8
  %11 = alloca ptr, align 8
  %12 = alloca i64, align 8
  %13 = alloca i32, align 4
  %14 = alloca i32, align 4
  store ptr %0, ptr %6, align 8, !tbaa !20
  store i32 %1, ptr %7, align 4, !tbaa !52
  store i64 %2, ptr %8, align 8, !tbaa !82
  store i32 %3, ptr %9, align 4, !tbaa !52
  call void @llvm.lifetime.start.p0(i64 8, ptr %10) #6
  %15 = load ptr, ptr %6, align 8, !tbaa !20
  %16 = getelementptr inbounds nuw %struct.AVFormatContext, ptr %15, i32 0, i32 3
  %17 = load ptr, ptr %16, align 8, !tbaa !79
  store ptr %17, ptr %10, align 8, !tbaa !80
  call void @llvm.lifetime.start.p0(i64 8, ptr %11) #6
  %18 = load ptr, ptr %6, align 8, !tbaa !20
  %19 = getelementptr inbounds nuw %struct.AVFormatContext, ptr %18, i32 0, i32 7
  %20 = load ptr, ptr %19, align 8, !tbaa !88
  %21 = load i32, ptr %7, align 4, !tbaa !52
  %22 = sext i32 %21 to i64
  %23 = getelementptr inbounds ptr, ptr %20, i64 %22
  %24 = load ptr, ptr %23, align 8, !tbaa !31
  store ptr %24, ptr %11, align 8, !tbaa !31
  call void @llvm.lifetime.start.p0(i64 8, ptr %12) #6
  call void @llvm.lifetime.start.p0(i64 4, ptr %13) #6
  %25 = load i64, ptr %8, align 8, !tbaa !82
  %26 = load ptr, ptr %10, align 8, !tbaa !80
  %27 = getelementptr inbounds nuw %struct.ArgoASFDemuxContext, ptr %26, i32 0, i32 1
  %28 = getelementptr inbounds nuw %struct.ArgoASFChunkHeader, ptr %27, i32 0, i32 1
  %29 = load i32, ptr %28, align 4, !tbaa !93
  %30 = zext i32 %29 to i64
  %31 = sdiv i64 %25, %30
  %32 = trunc i64 %31 to i32
  store i32 %32, ptr %13, align 4, !tbaa !52
  %33 = load i32, ptr %13, align 4, !tbaa !52
  %34 = load ptr, ptr %10, align 8, !tbaa !80
  %35 = getelementptr inbounds nuw %struct.ArgoASFDemuxContext, ptr %34, i32 0, i32 1
  %36 = getelementptr inbounds nuw %struct.ArgoASFChunkHeader, ptr %35, i32 0, i32 0
  %37 = load i32, ptr %36, align 4, !tbaa !90
  %38 = icmp uge i32 %33, %37
  br i1 %38, label %39, label %40

39:                                               ; preds = %4
  store i32 -1, ptr %5, align 4
  store i32 1, ptr %14, align 4
  br label %70

40:                                               ; preds = %4
  %41 = load ptr, ptr %10, align 8, !tbaa !80
  %42 = getelementptr inbounds nuw %struct.ArgoASFDemuxContext, ptr %41, i32 0, i32 0
  %43 = getelementptr inbounds nuw %struct.ArgoASFFileHeader, ptr %42, i32 0, i32 4
  %44 = load i32, ptr %43, align 4, !tbaa !85
  %45 = add i32 %44, 20
  %46 = zext i32 %45 to i64
  %47 = load i32, ptr %13, align 4, !tbaa !52
  %48 = zext i32 %47 to i64
  %49 = load ptr, ptr %11, align 8, !tbaa !31
  %50 = getelementptr inbounds nuw %struct.AVStream, ptr %49, i32 0, i32 3
  %51 = load ptr, ptr %50, align 8, !tbaa !33
  %52 = getelementptr inbounds nuw %struct.AVCodecParameters, ptr %51, i32 0, i32 26
  %53 = load i32, ptr %52, align 4, !tbaa !57
  %54 = sext i32 %53 to i64
  %55 = mul nsw i64 %48, %54
  %56 = add nsw i64 %46, %55
  store i64 %56, ptr %12, align 8, !tbaa !82
  %57 = load ptr, ptr %6, align 8, !tbaa !20
  %58 = getelementptr inbounds nuw %struct.AVFormatContext, ptr %57, i32 0, i32 4
  %59 = load ptr, ptr %58, align 8, !tbaa !66
  %60 = load i64, ptr %12, align 8, !tbaa !82
  %61 = call i64 @avio_seek(ptr noundef %59, i64 noundef %60, i32 noundef 0)
  store i64 %61, ptr %12, align 8, !tbaa !82
  %62 = icmp slt i64 %61, 0
  br i1 %62, label %63, label %66

63:                                               ; preds = %40
  %64 = load i64, ptr %12, align 8, !tbaa !82
  %65 = trunc i64 %64 to i32
  store i32 %65, ptr %5, align 4
  store i32 1, ptr %14, align 4
  br label %70

66:                                               ; preds = %40
  %67 = load i32, ptr %13, align 4, !tbaa !52
  %68 = load ptr, ptr %10, align 8, !tbaa !80
  %69 = getelementptr inbounds nuw %struct.ArgoASFDemuxContext, ptr %68, i32 0, i32 2
  store i32 %67, ptr %69, align 4, !tbaa !89
  store i32 0, ptr %5, align 4
  store i32 1, ptr %14, align 4
  br label %70

70:                                               ; preds = %66, %63, %39
  call void @llvm.lifetime.end.p0(i64 4, ptr %13) #6
  call void @llvm.lifetime.end.p0(i64 8, ptr %12) #6
  call void @llvm.lifetime.end.p0(i64 8, ptr %11) #6
  call void @llvm.lifetime.end.p0(i64 8, ptr %10) #6
  %71 = load i32, ptr %5, align 4
  ret i32 %71
}