; Function Attrs: nounwind uwtable
define internal i32 @argo_asf_seek(ptr noundef readonly captures(none) %0, i32 noundef %1, i64 noundef %2, i32 %3) #3 {
  %5 = getelementptr inbounds nuw i8, ptr %0, i64 24
  %6 = load ptr, ptr %5, align 8, !tbaa !63
  %7 = getelementptr inbounds nuw i8, ptr %6, i64 28
  %8 = getelementptr inbounds nuw i8, ptr %6, i64 32
  %9 = load i32, ptr %8, align 4, !tbaa !72
  %10 = zext i32 %9 to i64
  %11 = sdiv i64 %2, %10
  %12 = trunc i64 %11 to i32
  %13 = load i32, ptr %7, align 4, !tbaa !69
  %.not = icmp ugt i32 %13, %12
  br i1 %.not, label %14, label %40

14:                                               ; preds = %4
  %15 = getelementptr inbounds nuw i8, ptr %0, i64 48
  %16 = load ptr, ptr %15, align 8, !tbaa !64
  %17 = sext i32 %1 to i64
  %18 = getelementptr inbounds ptr, ptr %16, i64 %17
  %19 = load ptr, ptr %18, align 8, !tbaa !65
  %20 = getelementptr inbounds nuw i8, ptr %6, i64 12
  %21 = load i32, ptr %20, align 4, !tbaa !76
  %22 = add i32 %21, 20
  %23 = zext i32 %22 to i64
  %24 = and i64 %11, 4294967295
  %25 = getelementptr inbounds nuw i8, ptr %19, i64 16
  %26 = load ptr, ptr %25, align 8, !tbaa !22
  %27 = getelementptr inbounds nuw i8, ptr %26, i64 156
  %28 = load i32, ptr %27, align 4, !tbaa !44
  %29 = sext i32 %28 to i64
  %30 = mul nsw i64 %24, %29
  %31 = add nsw i64 %30, %23
  %32 = getelementptr inbounds nuw i8, ptr %0, i64 32
  %33 = load ptr, ptr %32, align 8, !tbaa !51
  %34 = tail call i64 @avio_seek(ptr noundef %33, i64 noundef %31, i32 noundef 0) #10
  %35 = icmp slt i64 %34, 0
  br i1 %35, label %36, label %38

36:                                               ; preds = %14
  %37 = trunc i64 %34 to i32
  br label %40

38:                                               ; preds = %14
  %39 = getelementptr inbounds nuw i8, ptr %6, i64 48
  store i32 %12, ptr %39, align 4, !tbaa !67
  br label %40

40:                                               ; preds = %4, %38, %36
  %.0 = phi i32 [ %37, %36 ], [ 0, %38 ], [ -1, %4 ]
  ret i32 %.0
}